target datalayout = "e-m:e-p270:32:32-p271:32:32-p272:64:64-i64:64-i128:128-f80:128-n8:16:32:64-S128"
target triple = "x86_64-pc-linux-gnu"

%struct.job_record = type { i32, ptr, ptr, ptr, ptr, i16, i32, i32, i32, ptr, i32, ptr, ptr, i16, ptr, double, i64, ptr, ptr, ptr, ptr, ptr, ptr, i32, ptr, i32, i64, i64, i32, i32, ptr, i16, i64, i64, i8, i32, ptr, ptr, ptr, ptr, ptr, ptr, ptr, ptr, i32, ptr, ptr, i32, ptr, i32, ptr, i32, ptr, i32, ptr, ptr, ptr, ptr, ptr, ptr, i32, i16, i64, ptr, ptr, ptr, ptr, %struct.acct_policy_limit_set_t, i16, ptr, ptr, ptr, ptr, ptr, i32, ptr, ptr, ptr, ptr, ptr, i32, i32, ptr, ptr, ptr, i16, ptr, ptr, i8, ptr, ptr, i64, i64, i8, i32, i32, i8, i32, ptr, i32, i64, i32, ptr, ptr, ptr, i8, i16, i64, i32, ptr, ptr, ptr, ptr, ptr, i16, i32, ptr, ptr, ptr, ptr, i32, ptr, i32, i16, i64, ptr, i32, i32, ptr, i64, ptr, ptr, i64, i32, i32, i64, i32, i32, ptr, ptr, ptr, ptr, ptr, ptr, ptr, ptr, ptr, ptr, ptr, ptr, i32, ptr, i16, i16, i16, i16, ptr, i32, i32, i8, i64 }
%struct.acct_policy_limit_set_t = type { i16, i16, ptr }
%struct.job_details_t = type { i32, ptr, i64, ptr, i32, ptr, i64, ptr, i16, i16, ptr, i16, i32, i32, i32, i16, ptr, i16, ptr, ptr, ptr, i16, ptr, ptr, ptr, ptr, i32, ptr, ptr, ptr, ptr, ptr, i32, i32, i32, ptr, ptr, i16, i32, i32, i32, i32, i32, i32, i16, i16, i32, i8, i8, i32, i32, i64, i64, i16, i32, ptr, ptr, i8, ptr, i32, ptr, i64, ptr, ptr, i16, i16, i16, i8, ptr, ptr, ptr, ptr, ptr, ptr, i64, i32, i32, i8, ptr, i16, ptr, ptr, i16 }

; Function Attrs: nounwind uwtable
define internal void @_destroy_dep_job(ptr noundef %0) #0 {
  %2 = alloca ptr, align 8
  %3 = alloca ptr, align 8
  store ptr %0, ptr %2, align 8
  call void @llvm.lifetime.start.p0(i64 8, ptr %3) #9
  %4 = load ptr, ptr %2, align 8
  store ptr %4, ptr %3, align 8
  %5 = load ptr, ptr %3, align 8
  %6 = icmp ne ptr %5, null
  br i1 %6, label %7, label %51

7:                                                ; preds = %1
  %8 = load ptr, ptr %3, align 8
  %9 = getelementptr inbounds nuw %struct.job_record, ptr %8, i32 0, i32 39
  call void @slurm_xfree(ptr noundef %9)
  %10 = load ptr, ptr %3, align 8
  %11 = getelementptr inbounds nuw %struct.job_record, ptr %10, i32 0, i32 72
  call void @slurm_xfree(ptr noundef %11)
  %12 = load ptr, ptr %3, align 8
  %13 = getelementptr inbounds nuw %struct.job_record, ptr %12, i32 0, i32 30
  %14 = load ptr, ptr %13, align 8
  %15 = icmp ne ptr %14, null
  br i1 %15, label %16, label %43

16:                                               ; preds = %7
  %17 = load ptr, ptr %3, align 8
  %18 = getelementptr inbounds nuw %struct.job_record, ptr %17, i32 0, i32 30
  %19 = load ptr, ptr %18, align 8
  %20 = getelementptr inbounds nuw %struct.job_details_t, ptr %19, i32 0, i32 19
  call void @slurm_xfree(ptr noundef %20)
  br label %21

21:                                               ; preds = %16
  %22 = load ptr, ptr %3, align 8
  %23 = getelementptr inbounds nuw %struct.job_record, ptr %22, i32 0, i32 30
  %24 = load ptr, ptr %23, align 8
  %25 = getelementptr inbounds nuw %struct.job_details_t, ptr %24, i32 0, i32 18
  %26 = load ptr, ptr %25, align 8
  %27 = icmp ne ptr %26, null
  br i1 %27, label %28, label %34

28:                                               ; preds = %21
  %29 = load ptr, ptr %3, align 8
  %30 = getelementptr inbounds nuw %struct.job_record, ptr %29, i32 0, i32 30
  %31 = load ptr, ptr %30, align 8
  %32 = getelementptr inbounds nuw %struct.job_details_t, ptr %31, i32 0, i32 18
  %33 = load ptr, ptr %32, align 8
  call void @list_destroy(ptr noundef %33)
  br label %34

34:                                               ; preds = %28, %21
  %35 = load ptr, ptr %3, align 8
  %36 = getelementptr inbounds nuw %struct.job_record, ptr %35, i32 0, i32 30
  %37 = load ptr, ptr %36, align 8
  %38 = getelementptr inbounds nuw %struct.job_details_t, ptr %37, i32 0, i32 18
  store ptr null, ptr %38, align 8
  br label %39

39:                                               ; preds = %34
  br label %40

40:                                               ; preds = %39
  %41 = load ptr, ptr %3, align 8
  %42 = getelementptr inbounds nuw %struct.job_record, ptr %41, i32 0, i32 30
  call void @slurm_xfree(ptr noundef %42)
  br label %43

43:                                               ; preds = %40, %7
  %44 = load ptr, ptr %3, align 8
  call void @job_record_free_null_array_recs(ptr noundef %44)
  %45 = load ptr, ptr %3, align 8
  %46 = getelementptr inbounds nuw %struct.job_record, ptr %45, i32 0, i32 0
  store i32 0, ptr %46, align 8
  %47 = load ptr, ptr %3, align 8
  %48 = getelementptr inbounds nuw %struct.job_record, ptr %47, i32 0, i32 53
  store i32 0, ptr %48, align 8
  %49 = load ptr, ptr %3, align 8
  %50 = getelementptr inbounds nuw %struct.job_record, ptr %49, i32 0, i32 150
  store i32 0, ptr %50, align 8
  call void @slurm_xfree(ptr noundef %3)
  br label %51

51:                                               ; preds = %43, %1
  call void @llvm.lifetime.end.p0(i64 8, ptr %3) #9
  ret void
}