; Function Attrs: nounwind uwtable
define internal void @_destroy_dep_job(ptr noundef %0) #0 {
  %2 = alloca ptr, align 8
  call void @llvm.lifetime.start.p0(i64 8, ptr nonnull %2) #16
  store ptr %0, ptr %2, align 8
  %.not = icmp eq ptr %0, null
  br i1 %.not, label %20, label %3

3:                                                ; preds = %1
  %4 = getelementptr inbounds nuw i8, ptr %0, i64 280
  tail call void @slurm_xfree(ptr noundef nonnull %4) #16
  %5 = getelementptr inbounds nuw i8, ptr %0, i64 544
  tail call void @slurm_xfree(ptr noundef nonnull %5) #16
  %6 = getelementptr inbounds nuw i8, ptr %0, i64 216
  %7 = load ptr, ptr %6, align 8
  %.not3 = icmp eq ptr %7, null
  br i1 %.not3, label %17, label %8

8:                                                ; preds = %3
  %9 = getelementptr inbounds nuw i8, ptr %7, i64 128
  tail call void @slurm_xfree(ptr noundef nonnull %9) #16
  %10 = load ptr, ptr %6, align 8
  %11 = getelementptr inbounds nuw i8, ptr %10, i64 120
  %12 = load ptr, ptr %11, align 8
  %.not4 = icmp eq ptr %12, null
  br i1 %.not4, label %14, label %13

13:                                               ; preds = %8
  tail call void @list_destroy(ptr noundef nonnull %12) #16
  %.pre = load ptr, ptr %6, align 8
  br label %14

14:                                               ; preds = %13, %8
  %15 = phi ptr [ %.pre, %13 ], [ %10, %8 ]
  %16 = getelementptr inbounds nuw i8, ptr %15, i64 120
  store ptr null, ptr %16, align 8
  tail call void @slurm_xfree(ptr noundef nonnull %6) #16
  br label %17

17:                                               ; preds = %14, %3
  tail call void @job_record_free_null_array_recs(ptr noundef nonnull %0) #16
  store i32 0, ptr %0, align 8
  %18 = getelementptr inbounds nuw i8, ptr %0, i64 392
  store i32 0, ptr %18, align 8
  %19 = getelementptr inbounds nuw i8, ptr %0, i64 1096
  store i32 0, ptr %19, align 8
  call void @slurm_xfree(ptr noundef nonnull %2) #16
  br label %20

20:                                               ; preds = %17, %1
  call void @llvm.lifetime.end.p0(i64 8, ptr nonnull %2) #16
  ret void
}